target datalayout = "e-m:e-p270:32:32-p271:32:32-p272:64:64-i64:64-i128:128-f80:128-n8:16:32:64-S128"
target triple = "x86_64-pc-linux-gnu"

%struct.htbl_t = type { i64, i64, i64, i64 }

@H5PT_ptable_id_type = internal global i32 -2, align 4

; Function Attrs: nounwind uwtable
define i32 @H5PTread_packets(i64 noundef %0, i64 noundef %1, i64 noundef %2, ptr noundef %3) #0 {
  %5 = alloca i32, align 4
  %6 = alloca i64, align 8
  %7 = alloca i64, align 8
  %8 = alloca i64, align 8
  %9 = alloca ptr, align 8
  %10 = alloca ptr, align 8
  %11 = alloca i32, align 4
  store i64 %0, ptr %6, align 8, !tbaa !3
  store i64 %1, ptr %7, align 8, !tbaa !3
  store i64 %2, ptr %8, align 8, !tbaa !3
  store ptr %3, ptr %9, align 8, !tbaa !10
  call void @llvm.lifetime.start.p0(i64 8, ptr %10) #6
  %12 = load i64, ptr %6, align 8, !tbaa !3
  %13 = load i32, ptr @H5PT_ptable_id_type, align 4, !tbaa !11
  %14 = call ptr @H5Iobject_verify(i64 noundef %12, i32 noundef %13)
  store ptr %14, ptr %10, align 8, !tbaa !10
  %15 = load ptr, ptr %10, align 8, !tbaa !10
  %16 = icmp eq ptr %15, null
  br i1 %16, label %17, label %18

17:                                               ; preds = %4
  br label %39

18:                                               ; preds = %4
  %19 = load i64, ptr %8, align 8, !tbaa !3
  %20 = icmp eq i64 %19, 0
  br i1 %20, label %21, label %22

21:                                               ; preds = %18
  store i32 0, ptr %5, align 4
  store i32 1, ptr %11, align 4
  br label %40

22:                                               ; preds = %18
  %23 = load ptr, ptr %10, align 8, !tbaa !10
  %24 = getelementptr inbounds nuw %struct.htbl_t, ptr %23, i32 0, i32 0
  %25 = load i64, ptr %24, align 8, !tbaa !13
  %26 = load ptr, ptr %10, align 8, !tbaa !10
  %27 = getelementptr inbounds nuw %struct.htbl_t, ptr %26, i32 0, i32 1
  %28 = load i64, ptr %27, align 8, !tbaa !15
  %29 = load i64, ptr %7, align 8, !tbaa !3
  %30 = load i64, ptr %8, align 8, !tbaa !3
  %31 = load ptr, ptr %10, align 8, !tbaa !10
  %32 = getelementptr inbounds nuw %struct.htbl_t, ptr %31, i32 0, i32 3
  %33 = load i64, ptr %32, align 8, !tbaa !20
  %34 = load ptr, ptr %9, align 8, !tbaa !10
  %35 = call i32 @H5TB_common_read_records(i64 noundef %25, i64 noundef %28, i64 noundef %29, i64 noundef %30, i64 noundef %33, ptr noundef %34)
  %36 = icmp slt i32 %35, 0
  br i1 %36, label %37, label %38

37:                                               ; preds = %22
  br label %39

38:                                               ; preds = %22
  store i32 0, ptr %5, align 4
  store i32 1, ptr %11, align 4
  br label %40

39:                                               ; preds = %37, %17
  store i32 -1, ptr %5, align 4
  store i32 1, ptr %11, align 4
  br label %40

40:                                               ; preds = %39, %38, %21
  call void @llvm.lifetime.end.p0(i64 8, ptr %10) #6
  %41 = load i32, ptr %5, align 4
  ret i32 %41
}