; Function Attrs: nounwind uwtable
define range(i32 -1, 1) i32 @H5PTread_packets(i64 noundef %0, i64 noundef %1, i64 noundef %2, ptr noundef %3) local_unnamed_addr #0 {
  %5 = load i32, ptr @H5PT_ptable_id_type, align 4, !tbaa !3
  %6 = tail call ptr @H5Iobject_verify(i64 noundef %0, i32 noundef %5) #7
  %7 = icmp eq ptr %6, null
  br i1 %7, label %18, label %8

8:                                                ; preds = %4
  %9 = icmp eq i64 %2, 0
  br i1 %9, label %19, label %10

10:                                               ; preds = %8
  %11 = load i64, ptr %6, align 8, !tbaa !14
  %12 = getelementptr inbounds nuw i8, ptr %6, i64 8
  %13 = load i64, ptr %12, align 8, !tbaa !16
  %14 = getelementptr inbounds nuw i8, ptr %6, i64 24
  %15 = load i64, ptr %14, align 8, !tbaa !21
  %16 = tail call i32 @H5TB_common_read_records(i64 noundef %11, i64 noundef %13, i64 noundef %1, i64 noundef %2, i64 noundef %15, ptr noundef %3) #7
  %17 = icmp slt i32 %16, 0
  br i1 %17, label %18, label %19

18:                                               ; preds = %10, %4
  br label %19

19:                                               ; preds = %10, %8, %18
  %.0 = phi i32 [ -1, %18 ], [ 0, %8 ], [ 0, %10 ]
  ret i32 %.0
}